target datalayout = "e-m:e-p270:32:32-p271:32:32-p272:64:64-i64:64-i128:128-f80:128-n8:16:32:64-S128"
target triple = "x86_64-pc-linux-gnu"

%struct.Qureg = type { i32, i32, i32, i64, i64, i32, i32, %struct.ComplexArray, %struct.ComplexArray, %struct.ComplexArray, ptr, ptr, ptr, ptr, ptr, ptr }
%struct.ComplexArray = type { ptr, ptr }

@__func__.applyNamedPhaseFunc = private unnamed_addr constant [20 x i8] c"applyNamedPhaseFunc\00", align 1

; Function Attrs: nounwind uwtable
define void @applyNamedPhaseFunc(ptr noundef byval(%struct.Qureg) align 8 %0, ptr noundef %1, ptr noundef %2, i32 noundef %3, i32 noundef %4, i32 noundef %5) #0 {
  %7 = alloca ptr, align 8
  %8 = alloca ptr, align 8
  %9 = alloca i32, align 4
  %10 = alloca i32, align 4
  %11 = alloca i32, align 4
  %12 = alloca i32, align 4
  store ptr %1, ptr %7, align 8, !tbaa !27
  store ptr %2, ptr %8, align 8, !tbaa !27
  store i32 %3, ptr %9, align 4, !tbaa !4
  store i32 %4, ptr %10, align 4, !tbaa !4
  store i32 %5, ptr %11, align 4, !tbaa !4
  %13 = load ptr, ptr %7, align 8, !tbaa !27
  %14 = load ptr, ptr %8, align 8, !tbaa !27
  %15 = load i32, ptr %9, align 4, !tbaa !4
  call void @validateQubitSubregs(ptr noundef byval(%struct.Qureg) align 8 %0, ptr noundef %13, ptr noundef %14, i32 noundef %15, ptr noundef @__func__.applyNamedPhaseFunc)
  %16 = load ptr, ptr %8, align 8, !tbaa !27
  %17 = load i32, ptr %9, align 4, !tbaa !4
  %18 = load i32, ptr %10, align 4, !tbaa !4
  call void @validateMultiRegBitEncoding(ptr noundef %16, i32 noundef %17, i32 noundef %18, ptr noundef @__func__.applyNamedPhaseFunc)
  %19 = load i32, ptr %11, align 4, !tbaa !4
  %20 = load i32, ptr %9, align 4, !tbaa !4
  call void @validatePhaseFuncName(i32 noundef %19, i32 noundef %20, i32 noundef 0, ptr noundef @__func__.applyNamedPhaseFunc)
  call void @llvm.lifetime.start.p0(i64 4, ptr %12) #7
  store i32 0, ptr %12, align 4, !tbaa !4
  %21 = load ptr, ptr %7, align 8, !tbaa !27
  %22 = load ptr, ptr %8, align 8, !tbaa !27
  %23 = load i32, ptr %9, align 4, !tbaa !4
  %24 = load i32, ptr %10, align 4, !tbaa !4
  %25 = load i32, ptr %11, align 4, !tbaa !4
  %26 = load i32, ptr %12, align 4, !tbaa !4
  call void @statevec_applyParamNamedPhaseFuncOverrides(ptr noundef byval(%struct.Qureg) align 8 %0, ptr noundef %21, ptr noundef %22, i32 noundef %23, i32 noundef %24, i32 noundef %25, ptr noundef null, i32 noundef 0, ptr noundef null, ptr noundef null, i32 noundef 0, i32 noundef %26)
  %27 = getelementptr inbounds nuw %struct.Qureg, ptr %0, i32 0, i32 0
  %28 = load i32, ptr %27, align 8, !tbaa !13
  %29 = icmp ne i32 %28, 0
  br i1 %29, label %30, label %48

30:                                               ; preds = %6
  store i32 1, ptr %12, align 4, !tbaa !4
  %31 = load ptr, ptr %7, align 8, !tbaa !27
  %32 = load ptr, ptr %8, align 8, !tbaa !27
  %33 = load i32, ptr %9, align 4, !tbaa !4
  %34 = getelementptr inbounds nuw %struct.Qureg, ptr %0, i32 0, i32 1
  %35 = load i32, ptr %34, align 4, !tbaa !18
  call void @shiftSubregIndices(ptr noundef %31, ptr noundef %32, i32 noundef %33, i32 noundef %35)
  %36 = load ptr, ptr %7, align 8, !tbaa !27
  %37 = load ptr, ptr %8, align 8, !tbaa !27
  %38 = load i32, ptr %9, align 4, !tbaa !4
  %39 = load i32, ptr %10, align 4, !tbaa !4
  %40 = load i32, ptr %11, align 4, !tbaa !4
  %41 = load i32, ptr %12, align 4, !tbaa !4
  call void @statevec_applyParamNamedPhaseFuncOverrides(ptr noundef byval(%struct.Qureg) align 8 %0, ptr noundef %36, ptr noundef %37, i32 noundef %38, i32 noundef %39, i32 noundef %40, ptr noundef null, i32 noundef 0, ptr noundef null, ptr noundef null, i32 noundef 0, i32 noundef %41)
  %42 = load ptr, ptr %7, align 8, !tbaa !27
  %43 = load ptr, ptr %8, align 8, !tbaa !27
  %44 = load i32, ptr %9, align 4, !tbaa !4
  %45 = getelementptr inbounds nuw %struct.Qureg, ptr %0, i32 0, i32 1
  %46 = load i32, ptr %45, align 4, !tbaa !18
  %47 = sub nsw i32 0, %46
  call void @shiftSubregIndices(ptr noundef %42, ptr noundef %43, i32 noundef %44, i32 noundef %47)
  br label %48

48:                                               ; preds = %30, %6
  %49 = load ptr, ptr %7, align 8, !tbaa !27
  %50 = load ptr, ptr %8, align 8, !tbaa !27
  %51 = load i32, ptr %9, align 4, !tbaa !4
  %52 = load i32, ptr %10, align 4, !tbaa !4
  %53 = load i32, ptr %11, align 4, !tbaa !4
  call void @qasm_recordNamedPhaseFunc(ptr noundef byval(%struct.Qureg) align 8 %0, ptr noundef %49, ptr noundef %50, i32 noundef %51, i32 noundef %52, i32 noundef %53, ptr noundef null, i32 noundef 0, ptr noundef null, ptr noundef null, i32 noundef 0)
  call void @llvm.lifetime.end.p0(i64 4, ptr %12) #7
  ret void
}