; Function Attrs: nounwind uwtable
define void @applyNamedPhaseFunc(ptr noundef readonly byval(%struct.Qureg) align 8 captures(none) %0, ptr noundef %1, ptr noundef %2, i32 noundef %3, i32 noundef %4, i32 noundef %5) local_unnamed_addr #0 {
  tail call void @validateQubitSubregs(ptr noundef nonnull byval(%struct.Qureg) align 8 %0, ptr noundef %1, ptr noundef %2, i32 noundef %3, ptr noundef nonnull @__func__.applyNamedPhaseFunc) #17
  tail call void @validateMultiRegBitEncoding(ptr noundef %2, i32 noundef %3, i32 noundef %4, ptr noundef nonnull @__func__.applyNamedPhaseFunc) #17
  tail call void @validatePhaseFuncName(i32 noundef %5, i32 noundef %3, i32 noundef 0, ptr noundef nonnull @__func__.applyNamedPhaseFunc) #17
  tail call void @statevec_applyParamNamedPhaseFuncOverrides(ptr noundef nonnull byval(%struct.Qureg) align 8 %0, ptr noundef %1, ptr noundef %2, i32 noundef %3, i32 noundef %4, i32 noundef %5, ptr noundef null, i32 noundef 0, ptr noundef null, ptr noundef null, i32 noundef 0, i32 noundef 0) #17
  %7 = load i32, ptr %0, align 8, !tbaa !12
  %.not = icmp eq i32 %7, 0
  br i1 %.not, label %12, label %8

8:                                                ; preds = %6
  %9 = getelementptr inbounds nuw i8, ptr %0, i64 4
  %10 = load i32, ptr %9, align 4, !tbaa !17
  tail call void @shiftSubregIndices(ptr noundef %1, ptr noundef %2, i32 noundef %3, i32 noundef %10) #17
  tail call void @statevec_applyParamNamedPhaseFuncOverrides(ptr noundef nonnull byval(%struct.Qureg) align 8 %0, ptr noundef %1, ptr noundef %2, i32 noundef %3, i32 noundef %4, i32 noundef %5, ptr noundef null, i32 noundef 0, ptr noundef null, ptr noundef null, i32 noundef 0, i32 noundef 1) #17
  %11 = sub nsw i32 0, %10
  tail call void @shiftSubregIndices(ptr noundef %1, ptr noundef %2, i32 noundef %3, i32 noundef %11) #17
  br label %12

12:                                               ; preds = %8, %6
  tail call void @qasm_recordNamedPhaseFunc(ptr noundef nonnull byval(%struct.Qureg) align 8 %0, ptr noundef %1, ptr noundef %2, i32 noundef %3, i32 noundef %4, i32 noundef %5, ptr noundef null, i32 noundef 0, ptr noundef null, ptr noundef null, i32 noundef 0) #17
  ret void
}